; Function Attrs: mustprogress uwtable
define dso_local void @_ZN13cmPropertyMap14AppendPropertyERKNSt7__cxx1112basic_stringIcSt11char_traitsIcESaIcEEES7_b(ptr noundef nonnull align 8 dereferenceable(56) %0, ptr noundef nonnull align 8 dereferenceable(32) %1, ptr noundef nonnull readonly align 8 captures(none) dereferenceable(32) %2, i1 noundef zeroext %3) local_unnamed_addr #1 align 2 personality ptr @__gxx_personality_v0 {
  %5 = getelementptr inbounds nuw i8, ptr %2, i64 8
  %6 = load i64, ptr %5, align 8, !tbaa !20
  %7 = icmp eq i64 %6, 0
  br i1 %7, label %36, label %8

8:                                                ; preds = %4
  %9 = tail call noundef nonnull align 8 dereferenceable(32) ptr @_ZNSt8__detail9_Map_baseINSt7__cxx1112basic_stringIcSt11char_traitsIcESaIcEEESt4pairIKS6_S6_ESaIS9_ENS_10_Select1stESt8equal_toIS6_ESt4hashIS6_ENS_18_Mod_range_hashingENS_20_Default_ranged_hashENS_20_Prime_rehash_policyENS_17_Hashtable_traitsILb1ELb0ELb1EEELb1EEixERS8_(ptr noundef nonnull align 8 dereferenceable(56) %0, ptr noundef nonnull align 8 dereferenceable(32) %1)
  %10 = getelementptr inbounds nuw i8, ptr %9, i64 8
  %11 = load i64, ptr %10, align 8, !tbaa !20
  %12 = icmp eq i64 %11, 0
  %brmerge = or i1 %3, %12
  br i1 %brmerge, label %28, label %13

13:                                               ; preds = %8
  %14 = add i64 %11, 1
  %15 = load ptr, ptr %9, align 8, !tbaa !16
  %16 = getelementptr inbounds nuw i8, ptr %9, i64 16
  %17 = icmp eq ptr %15, %16
  br i1 %17, label %18, label %_ZNKSt7__cxx1112basic_stringIcSt11char_traitsIcESaIcEE8capacityEv.exit.i.i

18:                                               ; preds = %13
  %19 = icmp ult i64 %11, 16
  tail call void @llvm.assume(i1 %19)
  br label %_ZNKSt7__cxx1112basic_stringIcSt11char_traitsIcESaIcEE8capacityEv.exit.i.i

_ZNKSt7__cxx1112basic_stringIcSt11char_traitsIcESaIcEE8capacityEv.exit.i.i: ; preds = %18, %13
  %20 = load i64, ptr %16, align 8
  %21 = select i1 %17, i64 15, i64 %20
  %22 = icmp ugt i64 %14, %21
  br i1 %22, label %23, label %_ZNSt7__cxx1112basic_stringIcSt11char_traitsIcESaIcEEpLEc.exit

23:                                               ; preds = %_ZNKSt7__cxx1112basic_stringIcSt11char_traitsIcESaIcEE8capacityEv.exit.i.i
  tail call void @_ZNSt7__cxx1112basic_stringIcSt11char_traitsIcESaIcEE9_M_mutateEmmPKcm(ptr noundef nonnull align 8 dereferenceable(32) %9, i64 noundef %11, i64 noundef 0, ptr noundef null, i64 noundef 1)
  %.pre.i.i = load ptr, ptr %9, align 8, !tbaa !16
  br label %_ZNSt7__cxx1112basic_stringIcSt11char_traitsIcESaIcEEpLEc.exit

_ZNSt7__cxx1112basic_stringIcSt11char_traitsIcESaIcEEpLEc.exit: ; preds = %_ZNKSt7__cxx1112basic_stringIcSt11char_traitsIcESaIcEE8capacityEv.exit.i.i, %23
  %24 = phi ptr [ %.pre.i.i, %23 ], [ %15, %_ZNKSt7__cxx1112basic_stringIcSt11char_traitsIcESaIcEE8capacityEv.exit.i.i ]
  %25 = getelementptr inbounds nuw i8, ptr %24, i64 %11
  store i8 59, ptr %25, align 1, !tbaa !21
  store i64 %14, ptr %10, align 8, !tbaa !20
  %26 = load ptr, ptr %9, align 8, !tbaa !16
  %27 = getelementptr inbounds nuw i8, ptr %26, i64 %14
  store i8 0, ptr %27, align 1, !tbaa !21
  %.pre = load i64, ptr %10, align 8, !tbaa !20
  br label %28

28:                                               ; preds = %8, %_ZNSt7__cxx1112basic_stringIcSt11char_traitsIcESaIcEEpLEc.exit
  %29 = phi i64 [ %11, %8 ], [ %.pre, %_ZNSt7__cxx1112basic_stringIcSt11char_traitsIcESaIcEEpLEc.exit ]
  %30 = load i64, ptr %5, align 8, !tbaa !20
  %31 = sub i64 4611686018427387903, %29
  %32 = icmp ult i64 %31, %30
  br i1 %32, label %33, label %_ZNSt7__cxx1112basic_stringIcSt11char_traitsIcESaIcEEpLERKS4_.exit

33:                                               ; preds = %28
  tail call void @_ZSt20__throw_length_errorPKc(ptr noundef nonnull @.str) #20
  unreachable

_ZNSt7__cxx1112basic_stringIcSt11char_traitsIcESaIcEEpLERKS4_.exit: ; preds = %28
  %34 = load ptr, ptr %2, align 8, !tbaa !16
  %35 = tail call noundef nonnull align 8 dereferenceable(32) ptr @_ZNSt7__cxx1112basic_stringIcSt11char_traitsIcESaIcEE9_M_appendEPKcm(ptr noundef nonnull align 8 dereferenceable(32) %9, ptr noundef %34, i64 noundef %30)
  br label %36

36:                                               ; preds = %4, %_ZNSt7__cxx1112basic_stringIcSt11char_traitsIcESaIcEEpLERKS4_.exit
  ret void
}